(lp1
(dp2
Vdomain
p3
V.stockx.com
p4
sVname
p5
VrCookie
p6
sVexpires
p7
VTue, 31 Dec 2030 00:00:00 GMT
p8
sVvalue
p9
Vyge6k4uc81c584qr1civbv
p10
sVexpiry
p11
I1924905600
sVpath
p12
V/
sVhttponly
p13
I00
sVsecure
p14
I00
sa(dp15
Vdomain
p16
V.stockx.com
p17
sVname
p18
V_gid
p19
sVexpires
p20
VMon, 15 May 2017 19:04:02 GMT
p21
sVvalue
p22
VGA1.2.13672242.1494788643
p23
sVexpiry
p24
I1494875042
sVpath
p25
V/
sVhttponly
p26
I00
sVsecure
p27
I00
sa(dp28
Vdomain
p29
V.stockx.com
p30
sVname
p31
V_ga
p32
sVexpires
p33
VTue, 14 May 2019 19:04:02 GMT
p34
sVvalue
p35
VGA1.2.347461221.1494788643
p36
sVexpiry
p37
I1557860642
sVpath
p38
V/
sVhttponly
p39
I00
sVsecure
p40
I00
sa.